target datalayout = "e-m:e-p270:32:32-p271:32:32-p272:64:64-i64:64-i128:128-f80:128-n8:16:32:64-S128"
target triple = "x86_64-pc-linux-gnu"

%"class.llvm::DebugLoc" = type { %"class.llvm::TypedTrackingMDRef" }
%"class.llvm::TypedTrackingMDRef" = type { %"class.llvm::TrackingMDRef" }
%"class.llvm::TrackingMDRef" = type { ptr }
%"struct.llvm::detail::PunnedPointer" = type { [8 x i8] }
%"class.llvm::PointerUnion.10" = type { %"class.llvm::pointer_union_detail::PointerUnionMembers.11" }
%"class.llvm::pointer_union_detail::PointerUnionMembers.11" = type { %"class.llvm::pointer_union_detail::PointerUnionMembers.12" }
%"class.llvm::pointer_union_detail::PointerUnionMembers.12" = type { %"class.llvm::pointer_union_detail::PointerUnionMembers.13" }
%"class.llvm::pointer_union_detail::PointerUnionMembers.13" = type { %"class.llvm::pointer_union_detail::PointerUnionMembers.14" }
%"class.llvm::pointer_union_detail::PointerUnionMembers.14" = type { %"class.llvm::PointerIntPair.15" }
%"class.llvm::PointerIntPair.15" = type { %"struct.llvm::detail::PunnedPointer" }

; Function Attrs: mustprogress nounwind uwtable
define linkonce_odr hidden noundef ptr @_ZN4llvm20pointer_union_detail22PointerUnionUIntTraitsIJPNS_15MetadataAsValueEPNS_8MetadataEPNS_14DebugValueUserEEE16getAsVoidPointerEPv(ptr noundef %0) #0 comdat align 2 {
  %2 = alloca ptr, align 8
  store ptr %0, ptr %2, align 8
  %3 = load ptr, ptr %2, align 8
  ret ptr %3
}

; Function Attrs: mustprogress nounwind uwtable
define linkonce_odr hidden noundef i64 @_ZN4llvm18PointerIntPairInfoIPvLj2ENS_20pointer_union_detail22PointerUnionUIntTraitsIJPNS_15MetadataAsValueEPNS_8MetadataEPNS_14DebugValueUserEEEEE9updateIntEll(i64 noundef %0, i64 noundef %1) #0 comdat align 2 {
  %3 = alloca i64, align 8
  %4 = alloca i64, align 8
  %5 = alloca i64, align 8
  store i64 %0, ptr %3, align 8
  store i64 %1, ptr %4, align 8
  %6 = load i64, ptr %4, align 8
  store i64 %6, ptr %5, align 8
  %7 = load i64, ptr %3, align 8
  %8 = and i64 %7, -4
  %9 = load i64, ptr %5, align 8
  %10 = shl i64 %9, 0
  %11 = or i64 %8, %10
  ret i64 %11
}

; Function Attrs: mustprogress nounwind uwtable
define linkonce_odr hidden noundef i64 @_ZN4llvm18PointerIntPairInfoIPvLj2ENS_20pointer_union_detail22PointerUnionUIntTraitsIJPNS_15MetadataAsValueEPNS_8MetadataEPNS_14DebugValueUserEEEEE13updatePointerElS1_(i64 noundef %0, ptr noundef %1) #0 comdat align 2 {
  %3 = alloca i64, align 8
  %4 = alloca ptr, align 8
  %5 = alloca i64, align 8
  store i64 %0, ptr %3, align 8
  store ptr %1, ptr %4, align 8
  %6 = load ptr, ptr %4, align 8
  %7 = call noundef ptr @_ZN4llvm20pointer_union_detail22PointerUnionUIntTraitsIJPNS_15MetadataAsValueEPNS_8MetadataEPNS_14DebugValueUserEEE16getAsVoidPointerEPv(ptr noundef %6)
  %8 = ptrtoint ptr %7 to i64
  store i64 %8, ptr %5, align 8
  %9 = load i64, ptr %5, align 8
  %10 = load i64, ptr %3, align 8
  %11 = and i64 %10, 3
  %12 = or i64 %9, %11
  ret i64 %12
}

; Function Attrs: mustprogress nounwind uwtable
define linkonce_odr hidden noundef nonnull align 8 dereferenceable(8) ptr @_ZN4llvm6detail13PunnedPointerIPvEaSEl(ptr noundef nonnull align 8 dereferenceable(8) %0, i64 noundef %1) #0 comdat align 2 {
  %3 = alloca ptr, align 8
  %4 = alloca i64, align 8
  store ptr %0, ptr %3, align 8
  store i64 %1, ptr %4, align 8
  %5 = load ptr, ptr %3, align 8
  %6 = getelementptr inbounds nuw %"struct.llvm::detail::PunnedPointer", ptr %5, i32 0, i32 0
  %7 = getelementptr inbounds [8 x i8], ptr %6, i64 0, i64 0
  call void @llvm.memcpy.p0.p0.i64(ptr align 8 %7, ptr align 8 %4, i64 8, i1 false)
  ret ptr %5
}

; Function Attrs: mustprogress nounwind uwtable
define linkonce_odr hidden void @_ZN4llvm20pointer_union_detail19PointerUnionMembersINS_12PointerUnionIJPNS_15MetadataAsValueEPNS_8MetadataEPNS_14DebugValueUserEEEENS_14PointerIntPairIPvLj2EiNS0_22PointerUnionUIntTraitsIJS4_S6_S8_EEENS_18PointerIntPairInfoISB_Lj2ESD_EEEELi3EJEEC2ESG_(ptr noundef nonnull align 8 dereferenceable(8) %0, i64 %1) unnamed_addr #0 comdat align 2 {
  %3 = alloca %"class.llvm::PointerIntPair.15", align 8
  %4 = alloca ptr, align 8
  %5 = getelementptr inbounds nuw %"class.llvm::PointerIntPair.15", ptr %3, i32 0, i32 0
  %6 = getelementptr inbounds nuw %"struct.llvm::detail::PunnedPointer", ptr %5, i32 0, i32 0
  store i64 %1, ptr %6, align 8
  store ptr %0, ptr %4, align 8
  %7 = load ptr, ptr %4, align 8
  %8 = getelementptr inbounds nuw %"class.llvm::pointer_union_detail::PointerUnionMembers.14", ptr %7, i32 0, i32 0
  call void @llvm.memcpy.p0.p0.i64(ptr align 8 %8, ptr align 8 %3, i64 8, i1 false)
  ret void
}

; Function Attrs: mustprogress nounwind uwtable
define linkonce_odr hidden void @_ZNR4llvm14PointerIntPairIPvLj2EiNS_20pointer_union_detail22PointerUnionUIntTraitsIJPNS_15MetadataAsValueEPNS_8MetadataEPNS_14DebugValueUserEEEENS_18PointerIntPairInfoIS1_Lj2ESA_EEE16setPointerAndIntES1_i(ptr noundef nonnull align 8 dereferenceable(8) %0, ptr noundef %1, i32 noundef %2) #0 comdat align 2 {
  %4 = alloca ptr, align 8
  %5 = alloca ptr, align 8
  %6 = alloca i32, align 4
  store ptr %0, ptr %4, align 8
  store ptr %1, ptr %5, align 8
  store i32 %2, ptr %6, align 4
  %7 = load ptr, ptr %4, align 8
  %8 = load ptr, ptr %5, align 8
  %9 = call noundef i64 @_ZN4llvm18PointerIntPairInfoIPvLj2ENS_20pointer_union_detail22PointerUnionUIntTraitsIJPNS_15MetadataAsValueEPNS_8MetadataEPNS_14DebugValueUserEEEEE13updatePointerElS1_(i64 noundef 0, ptr noundef %8)
  %10 = load i32, ptr %6, align 4
  %11 = sext i32 %10 to i64
  %12 = call noundef i64 @_ZN4llvm18PointerIntPairInfoIPvLj2ENS_20pointer_union_detail22PointerUnionUIntTraitsIJPNS_15MetadataAsValueEPNS_8MetadataEPNS_14DebugValueUserEEEEE9updateIntEll(i64 noundef %9, i64 noundef %11)
  %13 = getelementptr inbounds nuw %"class.llvm::PointerIntPair.15", ptr %7, i32 0, i32 0
  %14 = call noundef nonnull align 8 dereferenceable(8) ptr @_ZN4llvm6detail13PunnedPointerIPvEaSEl(ptr noundef nonnull align 8 dereferenceable(8) %13, i64 noundef %12)
  ret void
}

; Function Attrs: mustprogress nounwind uwtable
define linkonce_odr hidden void @_ZN4llvm6detail13PunnedPointerIPvEC2El(ptr noundef nonnull align 8 dereferenceable(8) %0, i64 noundef %1) unnamed_addr #0 comdat align 2 {
  %3 = alloca ptr, align 8
  %4 = alloca i64, align 8
  store ptr %0, ptr %3, align 8
  store i64 %1, ptr %4, align 8
  %5 = load ptr, ptr %3, align 8
  %6 = load i64, ptr %4, align 8
  %7 = call noundef nonnull align 8 dereferenceable(8) ptr @_ZN4llvm6detail13PunnedPointerIPvEaSEl(ptr noundef nonnull align 8 dereferenceable(8) %5, i64 noundef %6)
  ret void
}

; Function Attrs: mustprogress nounwind uwtable
define linkonce_odr hidden void @_ZN4llvm20pointer_union_detail19PointerUnionMembersINS_12PointerUnionIJPNS_15MetadataAsValueEPNS_8MetadataEPNS_14DebugValueUserEEEENS_14PointerIntPairIPvLj2EiNS0_22PointerUnionUIntTraitsIJS4_S6_S8_EEENS_18PointerIntPairInfoISB_Lj2ESD_EEEELi2EJS8_EECI2NS1_IS9_SG_Li3EJEEEESG_(ptr noundef nonnull align 8 dereferenceable(8) %0, i64 %1) unnamed_addr #0 comdat align 2 {
  %3 = alloca %"class.llvm::PointerIntPair.15", align 8
  %4 = alloca ptr, align 8
  %5 = getelementptr inbounds nuw %"class.llvm::PointerIntPair.15", ptr %3, i32 0, i32 0
  %6 = getelementptr inbounds nuw %"struct.llvm::detail::PunnedPointer", ptr %5, i32 0, i32 0
  store i64 %1, ptr %6, align 8
  store ptr %0, ptr %4, align 8
  %7 = load ptr, ptr %4, align 8
  %8 = getelementptr inbounds nuw %"class.llvm::PointerIntPair.15", ptr %3, i32 0, i32 0
  %9 = getelementptr inbounds nuw %"struct.llvm::detail::PunnedPointer", ptr %8, i32 0, i32 0
  %10 = load i64, ptr %9, align 8
  call void @_ZN4llvm20pointer_union_detail19PointerUnionMembersINS_12PointerUnionIJPNS_15MetadataAsValueEPNS_8MetadataEPNS_14DebugValueUserEEEENS_14PointerIntPairIPvLj2EiNS0_22PointerUnionUIntTraitsIJS4_S6_S8_EEENS_18PointerIntPairInfoISB_Lj2ESD_EEEELi3EJEEC2ESG_(ptr noundef nonnull align 8 dereferenceable(8) %7, i64 %10)
  ret void
}

; Function Attrs: mustprogress nounwind uwtable
define linkonce_odr hidden void @_ZN4llvm14PointerIntPairIPvLj2EiNS_20pointer_union_detail22PointerUnionUIntTraitsIJPNS_15MetadataAsValueEPNS_8MetadataEPNS_14DebugValueUserEEEENS_18PointerIntPairInfoIS1_Lj2ESA_EEEC2ES1_i(ptr noundef nonnull align 8 dereferenceable(8) %0, ptr noundef %1, i32 noundef %2) unnamed_addr #0 comdat align 2 {
  %4 = alloca ptr, align 8
  %5 = alloca ptr, align 8
  %6 = alloca i32, align 4
  store ptr %0, ptr %4, align 8
  store ptr %1, ptr %5, align 8
  store i32 %2, ptr %6, align 4
  %7 = load ptr, ptr %4, align 8
  %8 = getelementptr inbounds nuw %"class.llvm::PointerIntPair.15", ptr %7, i32 0, i32 0
  call void @_ZN4llvm6detail13PunnedPointerIPvEC2El(ptr noundef nonnull align 8 dereferenceable(8) %8, i64 noundef 0)
  %9 = load ptr, ptr %5, align 8
  %10 = load i32, ptr %6, align 4
  call void @_ZNR4llvm14PointerIntPairIPvLj2EiNS_20pointer_union_detail22PointerUnionUIntTraitsIJPNS_15MetadataAsValueEPNS_8MetadataEPNS_14DebugValueUserEEEENS_18PointerIntPairInfoIS1_Lj2ESA_EEE16setPointerAndIntES1_i(ptr noundef nonnull align 8 dereferenceable(8) %7, ptr noundef %9, i32 noundef %10)
  ret void
}

; Function Attrs: mustprogress nounwind uwtable
define linkonce_odr hidden noundef ptr @_ZN4llvm21PointerLikeTypeTraitsIPNS_8MetadataEE16getAsVoidPointerES2_(ptr noundef %0) #0 comdat align 2 {
  %2 = alloca ptr, align 8
  store ptr %0, ptr %2, align 8
  %3 = load ptr, ptr %2, align 8
  ret ptr %3
}

; Function Attrs: mustprogress nounwind uwtable
define linkonce_odr hidden void @_ZN4llvm20pointer_union_detail19PointerUnionMembersINS_12PointerUnionIJPNS_15MetadataAsValueEPNS_8MetadataEPNS_14DebugValueUserEEEENS_14PointerIntPairIPvLj2EiNS0_22PointerUnionUIntTraitsIJS4_S6_S8_EEENS_18PointerIntPairInfoISB_Lj2ESD_EEEELi1EJS6_S8_EEC2ES6_(ptr noundef nonnull align 8 dereferenceable(8) %0, ptr noundef %1) unnamed_addr #0 comdat align 2 {
  %3 = alloca ptr, align 8
  %4 = alloca ptr, align 8
  %5 = alloca %"class.llvm::PointerIntPair.15", align 8
  store ptr %0, ptr %3, align 8
  store ptr %1, ptr %4, align 8
  %6 = load ptr, ptr %3, align 8
  %7 = load ptr, ptr %4, align 8
  %8 = call noundef ptr @_ZN4llvm21PointerLikeTypeTraitsIPNS_8MetadataEE16getAsVoidPointerES2_(ptr noundef %7)
  call void @_ZN4llvm14PointerIntPairIPvLj2EiNS_20pointer_union_detail22PointerUnionUIntTraitsIJPNS_15MetadataAsValueEPNS_8MetadataEPNS_14DebugValueUserEEEENS_18PointerIntPairInfoIS1_Lj2ESA_EEEC2ES1_i(ptr noundef nonnull align 8 dereferenceable(8) %5, ptr noundef %8, i32 noundef 1)
  %9 = getelementptr inbounds nuw %"class.llvm::PointerIntPair.15", ptr %5, i32 0, i32 0
  %10 = getelementptr inbounds nuw %"struct.llvm::detail::PunnedPointer", ptr %9, i32 0, i32 0
  %11 = load i64, ptr %10, align 8
  call void @_ZN4llvm20pointer_union_detail19PointerUnionMembersINS_12PointerUnionIJPNS_15MetadataAsValueEPNS_8MetadataEPNS_14DebugValueUserEEEENS_14PointerIntPairIPvLj2EiNS0_22PointerUnionUIntTraitsIJS4_S6_S8_EEENS_18PointerIntPairInfoISB_Lj2ESD_EEEELi2EJS8_EECI2NS1_IS9_SG_Li3EJEEEESG_(ptr noundef nonnull align 8 dereferenceable(8) %6, i64 %11)
  ret void
}

; Function Attrs: mustprogress nounwind uwtable
define linkonce_odr hidden void @_ZN4llvm20pointer_union_detail19PointerUnionMembersINS_12PointerUnionIJPNS_15MetadataAsValueEPNS_8MetadataEPNS_14DebugValueUserEEEENS_14PointerIntPairIPvLj2EiNS0_22PointerUnionUIntTraitsIJS4_S6_S8_EEENS_18PointerIntPairInfoISB_Lj2ESD_EEEELi0EJS4_S6_S8_EECI2NS1_IS9_SG_Li1EJS6_S8_EEEES6_(ptr noundef nonnull align 8 dereferenceable(8) %0, ptr noundef %1) unnamed_addr #0 comdat align 2 {
  %3 = alloca ptr, align 8
  %4 = alloca ptr, align 8
  store ptr %0, ptr %3, align 8
  store ptr %1, ptr %4, align 8
  %5 = load ptr, ptr %3, align 8
  %6 = load ptr, ptr %4, align 8
  call void @_ZN4llvm20pointer_union_detail19PointerUnionMembersINS_12PointerUnionIJPNS_15MetadataAsValueEPNS_8MetadataEPNS_14DebugValueUserEEEENS_14PointerIntPairIPvLj2EiNS0_22PointerUnionUIntTraitsIJS4_S6_S8_EEENS_18PointerIntPairInfoISB_Lj2ESD_EEEELi1EJS6_S8_EEC2ES6_(ptr noundef nonnull align 8 dereferenceable(8) %5, ptr noundef %6)
  ret void
}

; Function Attrs: mustprogress nounwind uwtable
define linkonce_odr hidden void @_ZN4llvm12PointerUnionIJPNS_15MetadataAsValueEPNS_8MetadataEPNS_14DebugValueUserEEECI2NS_20pointer_union_detail19PointerUnionMembersIS7_NS_14PointerIntPairIPvLj2EiNS8_22PointerUnionUIntTraitsIJS2_S4_S6_EEENS_18PointerIntPairInfoISB_Lj2ESD_EEEELi1EJS4_S6_EEEES4_(ptr noundef nonnull align 8 dereferenceable(8) %0, ptr noundef %1) unnamed_addr #0 comdat align 2 {
  %3 = alloca ptr, align 8
  %4 = alloca ptr, align 8
  store ptr %0, ptr %3, align 8
  store ptr %1, ptr %4, align 8
  %5 = load ptr, ptr %3, align 8
  %6 = load ptr, ptr %4, align 8
  call void @_ZN4llvm20pointer_union_detail19PointerUnionMembersINS_12PointerUnionIJPNS_15MetadataAsValueEPNS_8MetadataEPNS_14DebugValueUserEEEENS_14PointerIntPairIPvLj2EiNS0_22PointerUnionUIntTraitsIJS4_S6_S8_EEENS_18PointerIntPairInfoISB_Lj2ESD_EEEELi0EJS4_S6_S8_EECI2NS1_IS9_SG_Li1EJS6_S8_EEEES6_(ptr noundef nonnull align 8 dereferenceable(8) %5, ptr noundef %6)
  ret void
}

; Function Attrs: mustprogress nounwind uwtable
define linkonce_odr hidden noundef zeroext i1 @_ZN4llvm16MetadataTracking5trackERPNS_8MetadataE(ptr noundef nonnull align 8 dereferenceable(8) %0) #0 comdat align 2 {
  %2 = alloca ptr, align 8
  %3 = alloca %"class.llvm::PointerUnion.10", align 8
  store ptr %0, ptr %2, align 8
  %4 = load ptr, ptr %2, align 8
  %5 = load ptr, ptr %2, align 8
  %6 = load ptr, ptr %5, align 8
  call void @_ZN4llvm12PointerUnionIJPNS_15MetadataAsValueEPNS_8MetadataEPNS_14DebugValueUserEEECI2NS_20pointer_union_detail19PointerUnionMembersIS7_NS_14PointerIntPairIPvLj2EiNS8_22PointerUnionUIntTraitsIJS2_S4_S6_EEENS_18PointerIntPairInfoISB_Lj2ESD_EEEELi1EJS4_S6_EEEES4_(ptr noundef nonnull align 8 dereferenceable(8) %3, ptr noundef null)
  %7 = getelementptr inbounds nuw %"class.llvm::PointerUnion.10", ptr %3, i32 0, i32 0
  %8 = getelementptr inbounds nuw %"class.llvm::pointer_union_detail::PointerUnionMembers.11", ptr %7, i32 0, i32 0
  %9 = getelementptr inbounds nuw %"class.llvm::pointer_union_detail::PointerUnionMembers.12", ptr %8, i32 0, i32 0
  %10 = getelementptr inbounds nuw %"class.llvm::pointer_union_detail::PointerUnionMembers.13", ptr %9, i32 0, i32 0
  %11 = getelementptr inbounds nuw %"class.llvm::pointer_union_detail::PointerUnionMembers.14", ptr %10, i32 0, i32 0
  %12 = getelementptr inbounds nuw %"class.llvm::PointerIntPair.15", ptr %11, i32 0, i32 0
  %13 = getelementptr inbounds nuw %"struct.llvm::detail::PunnedPointer", ptr %12, i32 0, i32 0
  %14 = load i64, ptr %13, align 8
  %15 = call noundef zeroext i1 @_ZN4llvm16MetadataTracking5trackEPvRNS_8MetadataENS_12PointerUnionIJPNS_15MetadataAsValueEPS2_PNS_14DebugValueUserEEEE(ptr noundef %4, ptr noundef nonnull align 4 dereferenceable(8) %6, i64 %14)
  ret i1 %15
}

; Function Attrs: mustprogress nounwind uwtable
define linkonce_odr hidden void @_ZN4llvm13TrackingMDRef5trackEv(ptr noundef nonnull align 8 dereferenceable(8) %0) #0 comdat align 2 {
  %2 = alloca ptr, align 8
  store ptr %0, ptr %2, align 8
  %3 = load ptr, ptr %2, align 8
  %4 = getelementptr inbounds nuw %"class.llvm::TrackingMDRef", ptr %3, i32 0, i32 0
  %5 = load ptr, ptr %4, align 8
  %6 = icmp ne ptr %5, null
  br i1 %6, label %7, label %10

7:                                                ; preds = %1
  %8 = getelementptr inbounds nuw %"class.llvm::TrackingMDRef", ptr %3, i32 0, i32 0
  %9 = call noundef zeroext i1 @_ZN4llvm16MetadataTracking5trackERPNS_8MetadataE(ptr noundef nonnull align 8 dereferenceable(8) %8)
  br label %10

10:                                               ; preds = %7, %1
  ret void
}

; Function Attrs: mustprogress nounwind uwtable
define linkonce_odr hidden void @_ZN4llvm13TrackingMDRefC2EPNS_8MetadataE(ptr noundef nonnull align 8 dereferenceable(8) %0, ptr noundef %1) unnamed_addr #0 comdat align 2 {
  %3 = alloca ptr, align 8
  %4 = alloca ptr, align 8
  store ptr %0, ptr %3, align 8
  store ptr %1, ptr %4, align 8
  %5 = load ptr, ptr %3, align 8
  %6 = getelementptr inbounds nuw %"class.llvm::TrackingMDRef", ptr %5, i32 0, i32 0
  %7 = load ptr, ptr %4, align 8
  store ptr %7, ptr %6, align 8
  call void @_ZN4llvm13TrackingMDRef5trackEv(ptr noundef nonnull align 8 dereferenceable(8) %5)
  ret void
}

; Function Attrs: mustprogress nounwind uwtable
define linkonce_odr hidden void @_ZN4llvm18TypedTrackingMDRefINS_6MDNodeEEC2EPS1_(ptr noundef nonnull align 8 dereferenceable(8) %0, ptr noundef %1) unnamed_addr #0 comdat align 2 {
  %3 = alloca ptr, align 8
  %4 = alloca ptr, align 8
  store ptr %0, ptr %3, align 8
  store ptr %1, ptr %4, align 8
  %5 = load ptr, ptr %3, align 8
  %6 = getelementptr inbounds nuw %"class.llvm::TypedTrackingMDRef", ptr %5, i32 0, i32 0
  %7 = load ptr, ptr %4, align 8
  call void @_ZN4llvm13TrackingMDRefC2EPNS_8MetadataE(ptr noundef nonnull align 8 dereferenceable(8) %6, ptr noundef %7)
  ret void
}

; Function Attrs: mustprogress nounwind uwtable
define dso_local void @_ZN4llvm8DebugLocC2EPKNS_6MDNodeE(ptr noundef nonnull align 8 dereferenceable(8) %0, ptr noundef %1) unnamed_addr #0 align 2 {
  %3 = alloca ptr, align 8
  %4 = alloca ptr, align 8
  store ptr %0, ptr %3, align 8
  store ptr %1, ptr %4, align 8
  %5 = load ptr, ptr %3, align 8
  %6 = getelementptr inbounds nuw %"class.llvm::DebugLoc", ptr %5, i32 0, i32 0
  %7 = load ptr, ptr %4, align 8
  call void @_ZN4llvm18TypedTrackingMDRefINS_6MDNodeEEC2EPS1_(ptr noundef nonnull align 8 dereferenceable(8) %6, ptr noundef %7)
  ret void
}